; Function Attrs: nounwind uwtable
define ptr @l_Array_foldrMUnsafe_fold___at_Lean_FindLevelMVar_main___spec__2(ptr noundef %0, ptr noundef readonly captures(none) %1, i64 noundef %2, i64 noundef %3, ptr noundef %4, ptr noundef %5) local_unnamed_addr #0 {
  %.not38 = icmp eq i64 %2, %3
  br i1 %.not38, label %._crit_edge, label %.lr.ph

.lr.ph:                                           ; preds = %6
  %7 = getelementptr inbounds nuw i8, ptr %1, i64 24
  %8 = ptrtoint ptr %0 to i64
  %9 = and i64 %8, 1
  %.not36 = icmp eq i64 %9, 0
  br i1 %.not36, label %.lr.ph.split.us, label %.lr.ph.split

.lr.ph.split.us:                                  ; preds = %.lr.ph, %28
  %.02240.us = phi i64 [ %10, %28 ], [ %2, %.lr.ph ]
  %.02439.us = phi ptr [ %26, %28 ], [ %4, %.lr.ph ]
  %10 = add i64 %.02240.us, -1
  %11 = getelementptr inbounds nuw [0 x ptr], ptr %7, i64 0, i64 %10
  %12 = load ptr, ptr %11, align 8, !tbaa !10
  %13 = ptrtoint ptr %12 to i64
  %14 = and i64 %13, 1
  %.not.i26.us = icmp eq i64 %14, 0
  br i1 %.not.i26.us, label %15, label %lean_array_uget.exit.us

15:                                               ; preds = %.lr.ph.split.us
  %.val.i.i.us = load i32, ptr %12, align 4, !tbaa !4
  %16 = icmp sgt i32 %.val.i.i.us, 0
  br i1 %16, label %19, label %17, !prof !9

17:                                               ; preds = %15
  %.not.i.i.us = icmp eq i32 %.val.i.i.us, 0
  br i1 %.not.i.i.us, label %lean_array_uget.exit.us, label %18

18:                                               ; preds = %17
  tail call void @lean_inc_ref_cold(ptr noundef nonnull %12) #3
  br label %lean_array_uget.exit.us

19:                                               ; preds = %15
  %20 = add nuw i32 %.val.i.i.us, 1
  store i32 %20, ptr %12, align 4, !tbaa !4
  br label %lean_array_uget.exit.us

lean_array_uget.exit.us:                          ; preds = %19, %18, %17, %.lr.ph.split.us
  %.val.i.us = load i32, ptr %0, align 4, !tbaa !4
  %21 = icmp sgt i32 %.val.i.us, 0
  br i1 %21, label %24, label %22, !prof !9

22:                                               ; preds = %lean_array_uget.exit.us
  %.not.i27.us = icmp eq i32 %.val.i.us, 0
  br i1 %.not.i27.us, label %lean_inc.exit.us, label %23

23:                                               ; preds = %22
  tail call void @lean_inc_ref_cold(ptr noundef nonnull %0) #3
  br label %lean_inc.exit.us

24:                                               ; preds = %lean_array_uget.exit.us
  %25 = add nuw i32 %.val.i.us, 1
  store i32 %25, ptr %0, align 4, !tbaa !4
  br label %lean_inc.exit.us

lean_inc.exit.us:                                 ; preds = %24, %23, %22
  tail call void @lean_inc_heartbeat() #3
  %26 = tail call noalias ptr @mi_malloc_small(i64 noundef 48) #3
  %27 = icmp eq ptr %26, null
  br i1 %27, label %.split.us, label %28

28:                                               ; preds = %lean_inc.exit.us
  %29 = getelementptr inbounds nuw i8, ptr %26, i64 4
  store i32 1, ptr %26, align 4, !tbaa !4
  store i32 -184549328, ptr %29, align 4
  %30 = getelementptr inbounds nuw i8, ptr %26, i64 8
  store ptr @l_Array_foldrMUnsafe_fold___at_Lean_FindLevelMVar_main___spec__2___lambda__1, ptr %30, align 8, !tbaa !10
  %31 = getelementptr inbounds nuw i8, ptr %26, i64 16
  store i16 4, ptr %31, align 8, !tbaa !12
  %32 = getelementptr inbounds nuw i8, ptr %26, i64 18
  store i16 3, ptr %32, align 2, !tbaa !12
  %33 = getelementptr inbounds nuw i8, ptr %26, i64 24
  store ptr %.02439.us, ptr %33, align 8, !tbaa !10
  %34 = getelementptr inbounds nuw i8, ptr %26, i64 32
  store ptr %0, ptr %34, align 8, !tbaa !10
  %35 = getelementptr inbounds nuw i8, ptr %26, i64 40
  store ptr %12, ptr %35, align 8, !tbaa !10
  %.not.us = icmp eq i64 %10, %3
  br i1 %.not.us, label %._crit_edge.thread, label %.lr.ph.split.us

.lr.ph.split:                                     ; preds = %.lr.ph, %56
  %.02240 = phi i64 [ %36, %56 ], [ %2, %.lr.ph ]
  %.02439 = phi ptr [ %47, %56 ], [ %4, %.lr.ph ]
  %36 = add i64 %.02240, -1
  %37 = getelementptr inbounds nuw [0 x ptr], ptr %7, i64 0, i64 %36
  %38 = load ptr, ptr %37, align 8, !tbaa !10
  %39 = ptrtoint ptr %38 to i64
  %40 = and i64 %39, 1
  %.not.i26 = icmp eq i64 %40, 0
  br i1 %.not.i26, label %41, label %lean_array_uget.exit

41:                                               ; preds = %.lr.ph.split
  %.val.i.i = load i32, ptr %38, align 4, !tbaa !4
  %42 = icmp sgt i32 %.val.i.i, 0
  br i1 %42, label %43, label %45, !prof !9

43:                                               ; preds = %41
  %44 = add nuw i32 %.val.i.i, 1
  store i32 %44, ptr %38, align 4, !tbaa !4
  br label %lean_array_uget.exit

45:                                               ; preds = %41
  %.not.i.i = icmp eq i32 %.val.i.i, 0
  br i1 %.not.i.i, label %lean_array_uget.exit, label %46

46:                                               ; preds = %45
  tail call void @lean_inc_ref_cold(ptr noundef nonnull %38) #3
  br label %lean_array_uget.exit

lean_array_uget.exit:                             ; preds = %.lr.ph.split, %43, %45, %46
  tail call void @lean_inc_heartbeat() #3
  %47 = tail call noalias ptr @mi_malloc_small(i64 noundef 48) #3
  %48 = icmp eq ptr %47, null
  br i1 %48, label %.split.us, label %56

.split.us:                                        ; preds = %lean_array_uget.exit, %lean_inc.exit.us
  tail call void @lean_internal_panic_out_of_memory() #4
  unreachable

._crit_edge:                                      ; preds = %6
  %.pre = ptrtoint ptr %0 to i64
  %.pre45 = and i64 %.pre, 1
  %49 = icmp eq i64 %.pre45, 0
  br i1 %49, label %._crit_edge.thread, label %._crit_edge.thread51

._crit_edge.thread:                               ; preds = %28, %._crit_edge
  %.024.lcssa50 = phi ptr [ %4, %._crit_edge ], [ %26, %28 ]
  %50 = load i32, ptr %0, align 4, !tbaa !4
  %51 = icmp sgt i32 %50, 1
  br i1 %51, label %52, label %54, !prof !9

52:                                               ; preds = %._crit_edge.thread
  %53 = add nsw i32 %50, -1
  store i32 %53, ptr %0, align 4, !tbaa !4
  br label %._crit_edge.thread51

54:                                               ; preds = %._crit_edge.thread
  %.not.i = icmp eq i32 %50, 0
  br i1 %.not.i, label %._crit_edge.thread51, label %55

55:                                               ; preds = %54
  tail call void @lean_dec_ref_cold(ptr noundef nonnull %0) #3
  br label %._crit_edge.thread51

56:                                               ; preds = %lean_array_uget.exit
  %57 = getelementptr inbounds nuw i8, ptr %47, i64 4
  store i32 1, ptr %47, align 4, !tbaa !4
  store i32 -184549328, ptr %57, align 4
  %58 = getelementptr inbounds nuw i8, ptr %47, i64 8
  store ptr @l_Array_foldrMUnsafe_fold___at_Lean_FindLevelMVar_main___spec__2___lambda__1, ptr %58, align 8, !tbaa !10
  %59 = getelementptr inbounds nuw i8, ptr %47, i64 16
  store i16 4, ptr %59, align 8, !tbaa !12
  %60 = getelementptr inbounds nuw i8, ptr %47, i64 18
  store i16 3, ptr %60, align 2, !tbaa !12
  %61 = getelementptr inbounds nuw i8, ptr %47, i64 24
  store ptr %.02439, ptr %61, align 8, !tbaa !10
  %62 = getelementptr inbounds nuw i8, ptr %47, i64 32
  store ptr %0, ptr %62, align 8, !tbaa !10
  %63 = getelementptr inbounds nuw i8, ptr %47, i64 40
  store ptr %38, ptr %63, align 8, !tbaa !10
  %.not = icmp eq i64 %36, %3
  br i1 %.not, label %._crit_edge.thread51, label %.lr.ph.split

._crit_edge.thread51:                             ; preds = %56, %._crit_edge, %52, %54, %55
  %.024.lcssa49 = phi ptr [ %4, %._crit_edge ], [ %.024.lcssa50, %52 ], [ %.024.lcssa50, %54 ], [ %.024.lcssa50, %55 ], [ %47, %56 ]
  %64 = tail call ptr @lean_apply_1(ptr noundef %.024.lcssa49, ptr noundef %5) #3
  ret ptr %64
}